target datalayout = "e-m:e-p270:32:32-p271:32:32-p272:64:64-i64:64-i128:128-f80:128-n8:16:32:64-S128"
target triple = "x86_64-pc-linux-gnu"

%struct.easy_pollset = type { [5 x i32], i32, [5 x i8] }
%struct.curl_waitfds = type { ptr, i32, i32 }
%struct.curl_waitfd = type { i32, i16, i16 }

; Function Attrs: nounwind uwtable
define internal i32 @cwfds_add_sock(ptr noundef %0, i32 noundef %1, i16 noundef signext %2) #0 {
  %4 = alloca i32, align 4
  %5 = alloca ptr, align 8
  %6 = alloca i32, align 4
  %7 = alloca i16, align 2
  %8 = alloca i32, align 4
  %9 = alloca i32, align 4
  store ptr %0, ptr %5, align 8, !tbaa !40
  store i32 %1, ptr %6, align 4, !tbaa !8
  store i16 %2, ptr %7, align 2, !tbaa !31
  call void @llvm.lifetime.start.p0(i64 4, ptr %8) #6
  %10 = load ptr, ptr %5, align 8, !tbaa !40
  %11 = getelementptr inbounds nuw %struct.curl_waitfds, ptr %10, i32 0, i32 1
  %12 = load i32, ptr %11, align 8, !tbaa !48
  %13 = icmp ule i32 %12, 2147483647
  br i1 %13, label %14, label %52

14:                                               ; preds = %3
  %15 = load ptr, ptr %5, align 8, !tbaa !40
  %16 = getelementptr inbounds nuw %struct.curl_waitfds, ptr %15, i32 0, i32 1
  %17 = load i32, ptr %16, align 8, !tbaa !48
  %18 = sub nsw i32 %17, 1
  store i32 %18, ptr %8, align 4, !tbaa !8
  br label %19

19:                                               ; preds = %48, %14
  %20 = load i32, ptr %8, align 4, !tbaa !8
  %21 = icmp sge i32 %20, 0
  br i1 %21, label %22, label %51

22:                                               ; preds = %19
  %23 = load i32, ptr %6, align 4, !tbaa !8
  %24 = load ptr, ptr %5, align 8, !tbaa !40
  %25 = getelementptr inbounds nuw %struct.curl_waitfds, ptr %24, i32 0, i32 0
  %26 = load ptr, ptr %25, align 8, !tbaa !44
  %27 = load i32, ptr %8, align 4, !tbaa !8
  %28 = sext i32 %27 to i64
  %29 = getelementptr inbounds %struct.curl_waitfd, ptr %26, i64 %28
  %30 = getelementptr inbounds nuw %struct.curl_waitfd, ptr %29, i32 0, i32 0
  %31 = load i32, ptr %30, align 4, !tbaa !49
  %32 = icmp eq i32 %23, %31
  br i1 %32, label %33, label %47

33:                                               ; preds = %22
  %34 = load i16, ptr %7, align 2, !tbaa !31
  %35 = sext i16 %34 to i32
  %36 = load ptr, ptr %5, align 8, !tbaa !40
  %37 = getelementptr inbounds nuw %struct.curl_waitfds, ptr %36, i32 0, i32 0
  %38 = load ptr, ptr %37, align 8, !tbaa !44
  %39 = load i32, ptr %8, align 4, !tbaa !8
  %40 = sext i32 %39 to i64
  %41 = getelementptr inbounds %struct.curl_waitfd, ptr %38, i64 %40
  %42 = getelementptr inbounds nuw %struct.curl_waitfd, ptr %41, i32 0, i32 1
  %43 = load i16, ptr %42, align 4, !tbaa !51
  %44 = sext i16 %43 to i32
  %45 = or i32 %44, %35
  %46 = trunc i32 %45 to i16
  store i16 %46, ptr %42, align 4, !tbaa !51
  store i32 0, ptr %4, align 4
  store i32 1, ptr %9, align 4
  br label %86

47:                                               ; preds = %22
  br label %48

48:                                               ; preds = %47
  %49 = load i32, ptr %8, align 4, !tbaa !8
  %50 = add nsw i32 %49, -1
  store i32 %50, ptr %8, align 4, !tbaa !8
  br label %19, !llvm.loop !52

51:                                               ; preds = %19
  br label %52

52:                                               ; preds = %51, %3
  %53 = load ptr, ptr %5, align 8, !tbaa !40
  %54 = getelementptr inbounds nuw %struct.curl_waitfds, ptr %53, i32 0, i32 1
  %55 = load i32, ptr %54, align 8, !tbaa !48
  %56 = load ptr, ptr %5, align 8, !tbaa !40
  %57 = getelementptr inbounds nuw %struct.curl_waitfds, ptr %56, i32 0, i32 2
  %58 = load i32, ptr %57, align 4, !tbaa !46
  %59 = icmp uge i32 %55, %58
  br i1 %59, label %60, label %61

60:                                               ; preds = %52
  store i32 27, ptr %4, align 4
  store i32 1, ptr %9, align 4
  br label %86

61:                                               ; preds = %52
  %62 = load i32, ptr %6, align 4, !tbaa !8
  %63 = load ptr, ptr %5, align 8, !tbaa !40
  %64 = getelementptr inbounds nuw %struct.curl_waitfds, ptr %63, i32 0, i32 0
  %65 = load ptr, ptr %64, align 8, !tbaa !44
  %66 = load ptr, ptr %5, align 8, !tbaa !40
  %67 = getelementptr inbounds nuw %struct.curl_waitfds, ptr %66, i32 0, i32 1
  %68 = load i32, ptr %67, align 8, !tbaa !48
  %69 = zext i32 %68 to i64
  %70 = getelementptr inbounds nuw %struct.curl_waitfd, ptr %65, i64 %69
  %71 = getelementptr inbounds nuw %struct.curl_waitfd, ptr %70, i32 0, i32 0
  store i32 %62, ptr %71, align 4, !tbaa !49
  %72 = load i16, ptr %7, align 2, !tbaa !31
  %73 = load ptr, ptr %5, align 8, !tbaa !40
  %74 = getelementptr inbounds nuw %struct.curl_waitfds, ptr %73, i32 0, i32 0
  %75 = load ptr, ptr %74, align 8, !tbaa !44
  %76 = load ptr, ptr %5, align 8, !tbaa !40
  %77 = getelementptr inbounds nuw %struct.curl_waitfds, ptr %76, i32 0, i32 1
  %78 = load i32, ptr %77, align 8, !tbaa !48
  %79 = zext i32 %78 to i64
  %80 = getelementptr inbounds nuw %struct.curl_waitfd, ptr %75, i64 %79
  %81 = getelementptr inbounds nuw %struct.curl_waitfd, ptr %80, i32 0, i32 1
  store i16 %72, ptr %81, align 4, !tbaa !51
  %82 = load ptr, ptr %5, align 8, !tbaa !40
  %83 = getelementptr inbounds nuw %struct.curl_waitfds, ptr %82, i32 0, i32 1
  %84 = load i32, ptr %83, align 8, !tbaa !48
  %85 = add i32 %84, 1
  store i32 %85, ptr %83, align 8, !tbaa !48
  store i32 0, ptr %4, align 4
  store i32 1, ptr %9, align 4
  br label %86

86:                                               ; preds = %61, %60, %33
  call void @llvm.lifetime.end.p0(i64 4, ptr %8) #6
  %87 = load i32, ptr %4, align 4
  ret i32 %87
}

; Function Attrs: nounwind uwtable
define dso_local i32 @Curl_waitfds_add_ps(ptr noundef %0, ptr noundef %1) #0 {
  %3 = alloca i32, align 4
  %4 = alloca ptr, align 8
  %5 = alloca ptr, align 8
  %6 = alloca i64, align 8
  %7 = alloca i16, align 2
  %8 = alloca i32, align 4
  store ptr %0, ptr %4, align 8, !tbaa !40
  store ptr %1, ptr %5, align 8, !tbaa !34
  call void @llvm.lifetime.start.p0(i64 8, ptr %6) #6
  br label %9

9:                                                ; preds = %2
  br label %10

10:                                               ; preds = %9
  br label %11

11:                                               ; preds = %10
  br label %12

12:                                               ; preds = %11
  br label %13

13:                                               ; preds = %12
  br label %14

14:                                               ; preds = %13
  store i64 0, ptr %6, align 8, !tbaa !4
  br label %15

15:                                               ; preds = %69, %14
  %16 = load i64, ptr %6, align 8, !tbaa !4
  %17 = load ptr, ptr %5, align 8, !tbaa !34
  %18 = getelementptr inbounds nuw %struct.easy_pollset, ptr %17, i32 0, i32 1
  %19 = load i32, ptr %18, align 4, !tbaa !36
  %20 = zext i32 %19 to i64
  %21 = icmp ult i64 %16, %20
  br i1 %21, label %22, label %72

22:                                               ; preds = %15
  call void @llvm.lifetime.start.p0(i64 2, ptr %7) #6
  store i16 0, ptr %7, align 2, !tbaa !31
  %23 = load ptr, ptr %5, align 8, !tbaa !34
  %24 = getelementptr inbounds nuw %struct.easy_pollset, ptr %23, i32 0, i32 2
  %25 = load i64, ptr %6, align 8, !tbaa !4
  %26 = getelementptr inbounds nuw [5 x i8], ptr %24, i64 0, i64 %25
  %27 = load i8, ptr %26, align 1, !tbaa !38
  %28 = zext i8 %27 to i32
  %29 = and i32 %28, 1
  %30 = icmp ne i32 %29, 0
  br i1 %30, label %31, label %36

31:                                               ; preds = %22
  %32 = load i16, ptr %7, align 2, !tbaa !31
  %33 = sext i16 %32 to i32
  %34 = or i32 %33, 1
  %35 = trunc i32 %34 to i16
  store i16 %35, ptr %7, align 2, !tbaa !31
  br label %36

36:                                               ; preds = %31, %22
  %37 = load ptr, ptr %5, align 8, !tbaa !34
  %38 = getelementptr inbounds nuw %struct.easy_pollset, ptr %37, i32 0, i32 2
  %39 = load i64, ptr %6, align 8, !tbaa !4
  %40 = getelementptr inbounds nuw [5 x i8], ptr %38, i64 0, i64 %39
  %41 = load i8, ptr %40, align 1, !tbaa !38
  %42 = zext i8 %41 to i32
  %43 = and i32 %42, 2
  %44 = icmp ne i32 %43, 0
  br i1 %44, label %45, label %50

45:                                               ; preds = %36
  %46 = load i16, ptr %7, align 2, !tbaa !31
  %47 = sext i16 %46 to i32
  %48 = or i32 %47, 4
  %49 = trunc i32 %48 to i16
  store i16 %49, ptr %7, align 2, !tbaa !31
  br label %50

50:                                               ; preds = %45, %36
  %51 = load i16, ptr %7, align 2, !tbaa !31
  %52 = icmp ne i16 %51, 0
  br i1 %52, label %53, label %65

53:                                               ; preds = %50
  %54 = load ptr, ptr %4, align 8, !tbaa !40
  %55 = load ptr, ptr %5, align 8, !tbaa !34
  %56 = getelementptr inbounds nuw %struct.easy_pollset, ptr %55, i32 0, i32 0
  %57 = load i64, ptr %6, align 8, !tbaa !4
  %58 = getelementptr inbounds nuw [5 x i32], ptr %56, i64 0, i64 %57
  %59 = load i32, ptr %58, align 4, !tbaa !8
  %60 = load i16, ptr %7, align 2, !tbaa !31
  %61 = call i32 @cwfds_add_sock(ptr noundef %54, i32 noundef %59, i16 noundef signext %60)
  %62 = icmp ne i32 %61, 0
  br i1 %62, label %63, label %64

63:                                               ; preds = %53
  store i32 27, ptr %3, align 4
  store i32 1, ptr %8, align 4
  br label %66

64:                                               ; preds = %53
  br label %65

65:                                               ; preds = %64, %50
  store i32 0, ptr %8, align 4
  br label %66

66:                                               ; preds = %65, %63
  call void @llvm.lifetime.end.p0(i64 2, ptr %7) #6
  %67 = load i32, ptr %8, align 4
  switch i32 %67, label %73 [
    i32 0, label %68
  ]

68:                                               ; preds = %66
  br label %69

69:                                               ; preds = %68
  %70 = load i64, ptr %6, align 8, !tbaa !4
  %71 = add i64 %70, 1
  store i64 %71, ptr %6, align 8, !tbaa !4
  br label %15, !llvm.loop !47

72:                                               ; preds = %15
  store i32 0, ptr %3, align 4
  store i32 1, ptr %8, align 4
  br label %73

73:                                               ; preds = %72, %66
  call void @llvm.lifetime.end.p0(i64 8, ptr %6) #6
  %74 = load i32, ptr %3, align 4
  ret i32 %74
}