; Function Attrs: nofree norecurse nosync nounwind memory(readwrite, inaccessiblemem: none) uwtable
define dso_local range(i32 0, 28) i32 @Curl_waitfds_add_ps(ptr noundef captures(none) %0, ptr noundef readonly captures(none) %1) local_unnamed_addr #6 {
  %3 = getelementptr inbounds nuw i8, ptr %1, i64 20
  %4 = load i32, ptr %3, align 4, !tbaa !23
  %5 = zext i32 %4 to i64
  %.not = icmp eq i32 %4, 0
  br i1 %.not, label %cwfds_add_sock.exit, label %.lr.ph

.lr.ph:                                           ; preds = %2
  %6 = getelementptr inbounds nuw i8, ptr %1, i64 24
  %7 = getelementptr inbounds nuw i8, ptr %0, i64 8
  %8 = getelementptr inbounds nuw i8, ptr %0, i64 12
  br label %9

9:                                                ; preds = %.lr.ph, %.critedge
  %.01625 = phi i64 [ 0, %.lr.ph ], [ %38, %.critedge ]
  %10 = getelementptr inbounds nuw [5 x i8], ptr %6, i64 0, i64 %.01625
  %11 = load i8, ptr %10, align 1, !tbaa !25
  %12 = and i8 %11, 1
  %13 = shl i8 %11, 1
  %14 = and i8 %13, 4
  %.124 = or disjoint i8 %14, %12
  %.1 = zext nneg i8 %.124 to i16
  %.not20 = icmp eq i8 %.124, 0
  br i1 %.not20, label %.critedge, label %15

15:                                               ; preds = %9
  %16 = getelementptr inbounds nuw [5 x i32], ptr %1, i64 0, i64 %.01625
  %17 = load i32, ptr %16, align 4, !tbaa !4
  %18 = load i32, ptr %7, align 8, !tbaa !32
  %19 = icmp sgt i32 %18, -1
  br i1 %19, label %.preheader.preheader.i, label %.loopexit.i

.preheader.preheader.i:                           ; preds = %15
  %20 = zext nneg i32 %18 to i64
  br label %.preheader.i

.preheader.i:                                     ; preds = %22, %.preheader.preheader.i
  %indvars.iv.i = phi i64 [ %20, %.preheader.preheader.i ], [ %indvars.iv.next.i, %22 ]
  %21 = icmp sgt i64 %indvars.iv.i, 0
  br i1 %21, label %22, label %.loopexit.i

22:                                               ; preds = %.preheader.i
  %indvars.iv.next.i = add nsw i64 %indvars.iv.i, -1
  %23 = load ptr, ptr %0, align 8, !tbaa !28
  %24 = getelementptr inbounds nuw %struct.curl_waitfd, ptr %23, i64 %indvars.iv.next.i
  %25 = load i32, ptr %24, align 4, !tbaa !33
  %26 = icmp eq i32 %17, %25
  br i1 %26, label %27, label %.preheader.i, !llvm.loop !35

27:                                               ; preds = %22
  %28 = getelementptr inbounds nuw %struct.curl_waitfd, ptr %23, i64 %indvars.iv.next.i, i32 1
  %29 = load i16, ptr %28, align 4, !tbaa !36
  %30 = or i16 %29, %.1
  store i16 %30, ptr %28, align 4, !tbaa !36
  br label %.critedge

.loopexit.i:                                      ; preds = %.preheader.i, %15
  %31 = load i32, ptr %8, align 4, !tbaa !31
  %.not.i = icmp ult i32 %18, %31
  br i1 %.not.i, label %32, label %cwfds_add_sock.exit

32:                                               ; preds = %.loopexit.i
  %33 = load ptr, ptr %0, align 8, !tbaa !28
  %34 = zext i32 %18 to i64
  %35 = getelementptr inbounds nuw %struct.curl_waitfd, ptr %33, i64 %34
  store i32 %17, ptr %35, align 4, !tbaa !33
  %36 = getelementptr inbounds nuw %struct.curl_waitfd, ptr %33, i64 %34, i32 1
  store i16 %.1, ptr %36, align 4, !tbaa !36
  %37 = add nuw i32 %18, 1
  store i32 %37, ptr %7, align 8, !tbaa !32
  br label %.critedge

.critedge:                                        ; preds = %32, %27, %9
  %38 = add nuw nsw i64 %.01625, 1
  %exitcond.not = icmp eq i64 %38, %5
  br i1 %exitcond.not, label %cwfds_add_sock.exit, label %9, !llvm.loop !37

cwfds_add_sock.exit:                              ; preds = %.critedge, %.loopexit.i, %2
  %.2 = phi i32 [ 0, %2 ], [ 27, %.loopexit.i ], [ 0, %.critedge ]
  ret i32 %.2
}